; Function Attrs: mustprogress uwtable
define dso_local void @_ZN4Luau7CodeGen3X6418AssemblyBuilderX643bsrENS1_11RegisterX64ENS1_10OperandX64E(ptr noundef nonnull align 8 dereferenceable(252) %0, i8 %1, i64 %2) local_unnamed_addr #0 align 2 {
  %4 = getelementptr inbounds nuw i8, ptr %0, i64 80
  %5 = load i8, ptr %4, align 8, !tbaa !14, !range !61, !noundef !62
  %6 = trunc nuw i8 %5 to i1
  br i1 %6, label %7, label %8

7:                                                ; preds = %3
  %.sroa.314.0.insert.ext = zext i8 %1 to i64
  %.sroa.314.0.insert.shift = shl nuw nsw i64 %.sroa.314.0.insert.ext, 16
  %.sroa.213.0.insert.insert = or disjoint i64 %.sroa.314.0.insert.shift, 268468224
  tail call void @_ZN4Luau7CodeGen3X6418AssemblyBuilderX643logEPKcNS1_10OperandX64ES5_(ptr noundef nonnull align 8 dereferenceable(252) %0, ptr noundef nonnull @.str.34, i64 %.sroa.213.0.insert.insert, i64 %2)
  br label %8

8:                                                ; preds = %7, %3
  %9 = and i8 %1, 7
  %10 = icmp eq i8 %9, 4
  %11 = icmp eq i8 %9, 1
  %12 = icmp ugt i8 %1, 31
  %13 = and i1 %12, %11
  %14 = or i1 %10, %13
  %15 = select i1 %14, i32 8, i32 0
  %16 = and i64 %2, 255
  %17 = icmp eq i64 %16, 2
  br i1 %17, label %18, label %23

18:                                               ; preds = %8
  %19 = lshr i8 %1, 6
  %20 = and i8 %19, 1
  %21 = trunc nuw nsw i32 %15 to i8
  %22 = or disjoint i8 %20, %21
  br label %36

23:                                               ; preds = %8
  %24 = lshr i8 %1, 4
  %25 = and i8 %24, 4
  %26 = zext nneg i8 %25 to i32
  %27 = trunc i64 %2 to i32
  %28 = lshr i32 %27, 13
  %29 = and i32 %28, 2
  %30 = or disjoint i32 %29, %26
  %31 = lshr i32 %27, 22
  %32 = and i32 %31, 1
  %33 = or disjoint i32 %30, %32
  %34 = or disjoint i32 %33, %15
  %35 = trunc nuw nsw i32 %34 to i8
  br label %36

36:                                               ; preds = %23, %18
  %.0.i = phi i8 [ %22, %18 ], [ %35, %23 ]
  %.not.i = icmp eq i8 %.0.i, 0
  br i1 %.not.i, label %_ZN4Luau7CodeGen3X6418AssemblyBuilderX648placeRexENS1_11RegisterX64ENS1_10OperandX64E.exit, label %37

37:                                               ; preds = %36
  %38 = or i8 %.0.i, 64
  %39 = getelementptr inbounds nuw i8, ptr %0, i64 232
  %40 = load ptr, ptr %39, align 8, !tbaa !51
  %41 = getelementptr inbounds nuw i8, ptr %40, i64 1
  store ptr %41, ptr %39, align 8, !tbaa !51
  store i8 %38, ptr %40, align 1, !tbaa !13
  br label %_ZN4Luau7CodeGen3X6418AssemblyBuilderX648placeRexENS1_11RegisterX64ENS1_10OperandX64E.exit

_ZN4Luau7CodeGen3X6418AssemblyBuilderX648placeRexENS1_11RegisterX64ENS1_10OperandX64E.exit: ; preds = %36, %37
  %42 = getelementptr inbounds nuw i8, ptr %0, i64 232
  %43 = load ptr, ptr %42, align 8, !tbaa !51
  %44 = getelementptr inbounds nuw i8, ptr %43, i64 1
  store ptr %44, ptr %42, align 8, !tbaa !51
  store i8 15, ptr %43, align 1, !tbaa !13
  %45 = load ptr, ptr %42, align 8, !tbaa !51
  %46 = getelementptr inbounds nuw i8, ptr %45, i64 1
  store ptr %46, ptr %42, align 8, !tbaa !51
  store i8 -67, ptr %45, align 1, !tbaa !13
  %47 = lshr i8 %1, 3
  tail call void @_ZN4Luau7CodeGen3X6418AssemblyBuilderX6414placeModRegMemENS1_10OperandX64Ehi(ptr noundef nonnull align 8 dereferenceable(252) %0, i64 %2, i8 noundef zeroext %47, i32 noundef 0)
  %48 = getelementptr inbounds nuw i8, ptr %0, i64 248
  %49 = load i32, ptr %48, align 8, !tbaa !63
  %50 = add i32 %49, 1
  store i32 %50, ptr %48, align 8, !tbaa !63
  %51 = getelementptr inbounds nuw i8, ptr %0, i64 240
  %52 = load ptr, ptr %51, align 8, !tbaa !52
  %53 = load ptr, ptr %42, align 8, !tbaa !51
  %54 = ptrtoint ptr %52 to i64
  %55 = ptrtoint ptr %53 to i64
  %56 = sub i64 %54, %55
  %57 = and i64 %56, 4294967280
  %58 = icmp eq i64 %57, 0
  br i1 %58, label %59, label %_ZN4Luau7CodeGen3X6418AssemblyBuilderX646commitEv.exit

59:                                               ; preds = %_ZN4Luau7CodeGen3X6418AssemblyBuilderX648placeRexENS1_11RegisterX64ENS1_10OperandX64E.exit
  tail call void @_ZN4Luau7CodeGen3X6418AssemblyBuilderX646extendEv(ptr noundef nonnull align 8 dereferenceable(252) %0)
  br label %_ZN4Luau7CodeGen3X6418AssemblyBuilderX646commitEv.exit

_ZN4Luau7CodeGen3X6418AssemblyBuilderX646commitEv.exit: ; preds = %_ZN4Luau7CodeGen3X6418AssemblyBuilderX648placeRexENS1_11RegisterX64ENS1_10OperandX64E.exit, %59
  ret void
}